; Function Attrs: mustprogress nofree norecurse nosync nounwind willreturn memory(argmem: read) uwtable
define internal range(i32 1, 5) i32 @pg_gb18030_mblen(ptr noundef readonly captures(none) %0) #0 {
  %2 = load i8, ptr %0, align 1
  %.not = icmp sgt i8 %2, -1
  br i1 %.not, label %7, label %3

3:                                                ; preds = %1
  %4 = getelementptr inbounds nuw i8, ptr %0, i64 1
  %5 = load i8, ptr %4, align 1
  %6 = add i8 %5, -48
  %or.cond = icmp ult i8 %6, 10
  %spec.select = select i1 %or.cond, i32 4, i32 2
  br label %7

7:                                                ; preds = %3, %1
  %.0 = phi i32 [ 1, %1 ], [ %spec.select, %3 ]
  ret i32 %.0
}